; Function Attrs: mustprogress nofree norecurse nosync nounwind willreturn memory(argmem: read) uwtable
define hidden noundef ptr @_ZN10duckdb_re214LookupCaseFoldEPKNS_8CaseFoldEii(ptr noundef readonly captures(address, ret: address, provenance) %0, i32 noundef %1, i32 noundef %2) local_unnamed_addr #13 {
  %4 = sext i32 %1 to i64
  %5 = getelementptr inbounds %"struct.duckdb_re2::CaseFold", ptr %0, i64 %4
  %6 = icmp sgt i32 %1, 0
  br i1 %6, label %.lr.ph, label %._crit_edge

.lr.ph:                                           ; preds = %3, %14
  %.02539 = phi ptr [ %.227, %14 ], [ %0, %3 ]
  %.02838 = phi i32 [ %.230, %14 ], [ %1, %3 ]
  %7 = lshr i32 %.02838, 1
  %8 = zext nneg i32 %7 to i64
  %9 = getelementptr inbounds nuw %"struct.duckdb_re2::CaseFold", ptr %.02539, i64 %8
  %10 = load i32, ptr %9, align 4, !tbaa !52
  %.not = icmp sgt i32 %10, %2
  br i1 %.not, label %14, label %11

11:                                               ; preds = %.lr.ph
  %12 = getelementptr inbounds nuw i8, ptr %9, i64 4
  %13 = load i32, ptr %12, align 4, !tbaa !54
  %.not32 = icmp sgt i32 %2, %13
  br i1 %.not32, label %14, label %.thread

14:                                               ; preds = %.lr.ph, %11
  %15 = add nuw nsw i32 %7, 1
  %16 = sub nsw i32 %.02838, %15
  %.230 = select i1 %.not, i32 %7, i32 %16
  %narrow = select i1 %.not, i32 0, i32 %15
  %.227.idx = zext nneg i32 %narrow to i64
  %.227 = getelementptr inbounds nuw %"struct.duckdb_re2::CaseFold", ptr %.02539, i64 %.227.idx
  %17 = icmp sgt i32 %.230, 0
  br i1 %17, label %.lr.ph, label %._crit_edge, !llvm.loop !55

._crit_edge:                                      ; preds = %14, %3
  %.025.lcssa = phi ptr [ %0, %3 ], [ %.227, %14 ]
  %18 = icmp ult ptr %.025.lcssa, %5
  %.025. = select i1 %18, ptr %.025.lcssa, ptr null
  br label %.thread

.thread:                                          ; preds = %11, %._crit_edge
  %.2 = phi ptr [ %.025., %._crit_edge ], [ %9, %11 ]
  ret ptr %.2
}